; Function Attrs: mustprogress nounwind uwtable
define dso_local noundef ptr @_ZNK4llvm27TargetLoweringObjectFileELF22lowerRelativeReferenceEPKNS_11GlobalValueES3_RKNS_13TargetMachineE(ptr nocapture noundef nonnull readonly align 8 dereferenceable(1026) %0, ptr noundef %1, ptr noundef %2, ptr noundef nonnull align 8 dereferenceable(1232) %3) unnamed_addr #0 align 2 {
  %5 = getelementptr inbounds nuw i8, ptr %1, i64 32
  %6 = load i32, ptr %5, align 8
  %7 = and i32 %6, 192
  %8 = icmp eq i32 %7, 128
  br i1 %8, label %9, label %58

9:                                                ; preds = %4
  %10 = getelementptr inbounds nuw i8, ptr %1, i64 24
  %11 = load ptr, ptr %10, align 8
  %12 = getelementptr inbounds nuw i8, ptr %11, i64 8
  %13 = load i32, ptr %12, align 8
  %14 = and i32 %13, 255
  %15 = icmp eq i32 %14, 13
  br i1 %15, label %16, label %58

16:                                               ; preds = %9
  %17 = getelementptr inbounds nuw i8, ptr %1, i64 8
  %18 = load ptr, ptr %17, align 8
  %19 = getelementptr inbounds nuw i8, ptr %18, i64 8
  %20 = load i32, ptr %19, align 8
  %21 = and i32 %20, 255
  %22 = add nsw i32 %21, -17
  %spec.select.i.i.i = icmp ult i32 %22, 2
  br i1 %spec.select.i.i.i, label %23, label %_ZNK4llvm4Type22getPointerAddressSpaceEv.exit

23:                                               ; preds = %16
  %24 = getelementptr inbounds nuw i8, ptr %18, i64 16
  %25 = load ptr, ptr %24, align 8
  %26 = load ptr, ptr %25, align 8
  %.phi.trans.insert.i = getelementptr inbounds nuw i8, ptr %26, i64 8
  %.pre.i = load i32, ptr %.phi.trans.insert.i, align 8
  br label %_ZNK4llvm4Type22getPointerAddressSpaceEv.exit

_ZNK4llvm4Type22getPointerAddressSpaceEv.exit:    ; preds = %16, %23
  %27 = phi i32 [ %.pre.i, %23 ], [ %20, %16 ]
  %.not = icmp ult i32 %27, 256
  br i1 %.not, label %28, label %58

28:                                               ; preds = %_ZNK4llvm4Type22getPointerAddressSpaceEv.exit
  %29 = getelementptr inbounds nuw i8, ptr %2, i64 8
  %30 = load ptr, ptr %29, align 8
  %31 = getelementptr inbounds nuw i8, ptr %30, i64 8
  %32 = load i32, ptr %31, align 8
  %33 = and i32 %32, 255
  %34 = add nsw i32 %33, -17
  %spec.select.i.i.i13 = icmp ult i32 %34, 2
  br i1 %spec.select.i.i.i13, label %35, label %_ZNK4llvm4Type22getPointerAddressSpaceEv.exit16

35:                                               ; preds = %28
  %36 = getelementptr inbounds nuw i8, ptr %30, i64 16
  %37 = load ptr, ptr %36, align 8
  %38 = load ptr, ptr %37, align 8
  %.phi.trans.insert.i14 = getelementptr inbounds nuw i8, ptr %38, i64 8
  %.pre.i15 = load i32, ptr %.phi.trans.insert.i14, align 8
  br label %_ZNK4llvm4Type22getPointerAddressSpaceEv.exit16

_ZNK4llvm4Type22getPointerAddressSpaceEv.exit16:  ; preds = %28, %35
  %39 = phi i32 [ %.pre.i15, %35 ], [ %32, %28 ]
  %.not12 = icmp ugt i32 %39, 255
  %40 = and i32 %6, 7168
  %41 = icmp ne i32 %40, 0
  %or.cond = or i1 %41, %.not12
  br i1 %or.cond, label %58, label %42

42:                                               ; preds = %_ZNK4llvm4Type22getPointerAddressSpaceEv.exit16
  %43 = getelementptr inbounds nuw i8, ptr %2, i64 32
  %44 = load i32, ptr %43, align 8
  %45 = and i32 %44, 7168
  %.not18 = icmp eq i32 %45, 0
  br i1 %.not18, label %46, label %58

46:                                               ; preds = %42
  %47 = tail call noundef ptr @_ZNK4llvm13TargetMachine9getSymbolEPKNS_11GlobalValueE(ptr noundef nonnull align 8 dereferenceable(1232) %3, ptr noundef nonnull %1) #24
  %48 = getelementptr inbounds nuw i8, ptr %0, i64 1024
  %49 = load i16, ptr %48, align 8
  %50 = getelementptr inbounds nuw i8, ptr %0, i64 904
  %51 = load ptr, ptr %50, align 8
  %52 = tail call noundef ptr @_ZN4llvm15MCSymbolRefExpr6createEPKNS_8MCSymbolENS0_11VariantKindERNS_9MCContextENS_5SMLocE(ptr noundef %47, i16 noundef zeroext %49, ptr noundef nonnull align 8 dereferenceable(2432) %51, ptr null) #24
  %53 = tail call noundef ptr @_ZNK4llvm13TargetMachine9getSymbolEPKNS_11GlobalValueE(ptr noundef nonnull align 8 dereferenceable(1232) %3, ptr noundef nonnull %2) #24
  %54 = load ptr, ptr %50, align 8
  %55 = tail call noundef ptr @_ZN4llvm15MCSymbolRefExpr6createEPKNS_8MCSymbolENS0_11VariantKindERNS_9MCContextENS_5SMLocE(ptr noundef %53, i16 noundef zeroext 0, ptr noundef nonnull align 8 dereferenceable(2432) %54, ptr null) #24
  %56 = load ptr, ptr %50, align 8
  %57 = tail call noundef ptr @_ZN4llvm12MCBinaryExpr6createENS0_6OpcodeEPKNS_6MCExprES4_RNS_9MCContextENS_5SMLocE(i32 noundef 18, ptr noundef %52, ptr noundef %55, ptr noundef nonnull align 8 dereferenceable(2432) %56, ptr null) #24
  br label %58

58:                                               ; preds = %_ZNK4llvm4Type22getPointerAddressSpaceEv.exit, %_ZNK4llvm4Type22getPointerAddressSpaceEv.exit16, %42, %4, %9, %46
  %.0 = phi ptr [ %57, %46 ], [ null, %9 ], [ null, %4 ], [ null, %42 ], [ null, %_ZNK4llvm4Type22getPointerAddressSpaceEv.exit16 ], [ null, %_ZNK4llvm4Type22getPointerAddressSpaceEv.exit ]
  ret ptr %.0
}